target datalayout = "e-m:e-p270:32:32-p271:32:32-p272:64:64-i64:64-i128:128-f80:128-n8:16:32:64-S128"
target triple = "x86_64-unknown-linux-gnu"

@.str.3 = private unnamed_addr constant [17 x i8] c"<Lut3DTransform \00", align 1
@.str.4 = private unnamed_addr constant [11 x i8] c"direction=\00", align 1
@.str.5 = private unnamed_addr constant [3 x i8] c", \00", align 1
@.str.6 = private unnamed_addr constant [14 x i8] c"fileoutdepth=\00", align 1
@.str.7 = private unnamed_addr constant [15 x i8] c"interpolation=\00", align 1
@.str.8 = private unnamed_addr constant [10 x i8] c"gridSize=\00", align 1
@.str.9 = private unnamed_addr constant [9 x i8] c"minrgb=[\00", align 1
@.str.10 = private unnamed_addr constant [2 x i8] c" \00", align 1
@.str.11 = private unnamed_addr constant [4 x i8] c"], \00", align 1
@.str.12 = private unnamed_addr constant [9 x i8] c"maxrgb=[\00", align 1
@.str.13 = private unnamed_addr constant [2 x i8] c"]\00", align 1
@.str.14 = private unnamed_addr constant [2 x i8] c">\00", align 1

; Function Attrs: mustprogress nounwind uwtable
define linkonce_odr noundef nonnull align 4 dereferenceable(4) ptr @_ZSt3maxIfERKT_S2_S2_(ptr noundef nonnull align 4 dereferenceable(4) %__a, ptr noundef nonnull align 4 dereferenceable(4) %__b) #7 comdat {
entry:
  %retval = alloca ptr, align 8
  %__a.addr = alloca ptr, align 8
  %__b.addr = alloca ptr, align 8
  store ptr %__a, ptr %__a.addr, align 8
  store ptr %__b, ptr %__b.addr, align 8
  %0 = load ptr, ptr %__a.addr, align 8
  %1 = load float, ptr %0, align 4
  %2 = load ptr, ptr %__b.addr, align 8
  %3 = load float, ptr %2, align 4
  %cmp = fcmp olt float %1, %3
  br i1 %cmp, label %if.then, label %if.end

if.then:                                          ; preds = %entry
  %4 = load ptr, ptr %__b.addr, align 8
  store ptr %4, ptr %retval, align 8
  br label %return

if.end:                                           ; preds = %entry
  %5 = load ptr, ptr %__a.addr, align 8
  store ptr %5, ptr %retval, align 8
  br label %return

return:                                           ; preds = %if.end, %if.then
  %6 = load ptr, ptr %retval, align 8
  ret ptr %6
}

; Function Attrs: mustprogress nounwind uwtable
define linkonce_odr noundef nonnull align 4 dereferenceable(4) ptr @_ZSt3minIfERKT_S2_S2_(ptr noundef nonnull align 4 dereferenceable(4) %__a, ptr noundef nonnull align 4 dereferenceable(4) %__b) #7 comdat {
entry:
  %retval = alloca ptr, align 8
  %__a.addr = alloca ptr, align 8
  %__b.addr = alloca ptr, align 8
  store ptr %__a, ptr %__a.addr, align 8
  store ptr %__b, ptr %__b.addr, align 8
  %0 = load ptr, ptr %__b.addr, align 8
  %1 = load float, ptr %0, align 4
  %2 = load ptr, ptr %__a.addr, align 8
  %3 = load float, ptr %2, align 4
  %cmp = fcmp olt float %1, %3
  br i1 %cmp, label %if.then, label %if.end

if.then:                                          ; preds = %entry
  %4 = load ptr, ptr %__b.addr, align 8
  store ptr %4, ptr %retval, align 8
  br label %return

if.end:                                           ; preds = %entry
  %5 = load ptr, ptr %__a.addr, align 8
  store ptr %5, ptr %retval, align 8
  br label %return

return:                                           ; preds = %if.end, %if.then
  %6 = load ptr, ptr %retval, align 8
  ret ptr %6
}

; Function Attrs: mustprogress nounwind uwtable
define linkonce_odr hidden noundef float @_ZNSt14numeric_limitsIfE3maxEv() #7 comdat align 2 {
entry:
  ret float 0x47EFFFFFE0000000
}

; Function Attrs: mustprogress uwtable
define noundef nonnull align 8 dereferenceable(8) ptr @_ZN19OpenColorIO_v2_4devlsERSoRKNS_14Lut3DTransformE(ptr noundef nonnull align 8 dereferenceable(8) %os, ptr noundef nonnull align 8 dereferenceable(8) %t) #4 {
entry:
  %os.addr = alloca ptr, align 8
  %t.addr = alloca ptr, align 8
  %l = alloca i64, align 8
  %rMin = alloca float, align 4
  %gMin = alloca float, align 4
  %bMin = alloca float, align 4
  %rMax = alloca float, align 4
  %gMax = alloca float, align 4
  %bMax = alloca float, align 4
  %r = alloca i64, align 8
  %g = alloca i64, align 8
  %b = alloca i64, align 8
  %rv = alloca float, align 4
  %gv = alloca float, align 4
  %bv = alloca float, align 4
  store ptr %os, ptr %os.addr, align 8
  store ptr %t, ptr %t.addr, align 8
  %0 = load ptr, ptr %os.addr, align 8
  %call = call noundef nonnull align 8 dereferenceable(8) ptr @_ZStlsISt11char_traitsIcEERSt13basic_ostreamIcT_ES5_PKc(ptr noundef nonnull align 8 dereferenceable(8) %0, ptr noundef @.str.3)
  %1 = load ptr, ptr %os.addr, align 8
  %call1 = call noundef nonnull align 8 dereferenceable(8) ptr @_ZStlsISt11char_traitsIcEERSt13basic_ostreamIcT_ES5_PKc(ptr noundef nonnull align 8 dereferenceable(8) %1, ptr noundef @.str.4)
  %2 = load ptr, ptr %t.addr, align 8
  %vtable = load ptr, ptr %2, align 8
  %vfn = getelementptr inbounds ptr, ptr %vtable, i64 1
  %3 = load ptr, ptr %vfn, align 8
  %call2 = call noundef i32 %3(ptr noundef nonnull align 8 dereferenceable(8) %2) #3
  %call3 = call noundef ptr @_ZN19OpenColorIO_v2_4dev26TransformDirectionToStringENS_18TransformDirectionE(i32 noundef %call2)
  %call4 = call noundef nonnull align 8 dereferenceable(8) ptr @_ZStlsISt11char_traitsIcEERSt13basic_ostreamIcT_ES5_PKc(ptr noundef nonnull align 8 dereferenceable(8) %call1, ptr noundef %call3)
  %call5 = call noundef nonnull align 8 dereferenceable(8) ptr @_ZStlsISt11char_traitsIcEERSt13basic_ostreamIcT_ES5_PKc(ptr noundef nonnull align 8 dereferenceable(8) %call4, ptr noundef @.str.5)
  %4 = load ptr, ptr %os.addr, align 8
  %call6 = call noundef nonnull align 8 dereferenceable(8) ptr @_ZStlsISt11char_traitsIcEERSt13basic_ostreamIcT_ES5_PKc(ptr noundef nonnull align 8 dereferenceable(8) %4, ptr noundef @.str.6)
  %5 = load ptr, ptr %t.addr, align 8
  %vtable7 = load ptr, ptr %5, align 8
  %vfn8 = getelementptr inbounds ptr, ptr %vtable7, i64 7
  %6 = load ptr, ptr %vfn8, align 8
  %call9 = call noundef i32 %6(ptr noundef nonnull align 8 dereferenceable(8) %5) #3
  %call10 = call noundef ptr @_ZN19OpenColorIO_v2_4dev16BitDepthToStringENS_8BitDepthE(i32 noundef %call9)
  %call11 = call noundef nonnull align 8 dereferenceable(8) ptr @_ZStlsISt11char_traitsIcEERSt13basic_ostreamIcT_ES5_PKc(ptr noundef nonnull align 8 dereferenceable(8) %call6, ptr noundef %call10)
  %call12 = call noundef nonnull align 8 dereferenceable(8) ptr @_ZStlsISt11char_traitsIcEERSt13basic_ostreamIcT_ES5_PKc(ptr noundef nonnull align 8 dereferenceable(8) %call11, ptr noundef @.str.5)
  %7 = load ptr, ptr %os.addr, align 8
  %call13 = call noundef nonnull align 8 dereferenceable(8) ptr @_ZStlsISt11char_traitsIcEERSt13basic_ostreamIcT_ES5_PKc(ptr noundef nonnull align 8 dereferenceable(8) %7, ptr noundef @.str.7)
  %8 = load ptr, ptr %t.addr, align 8
  %vtable14 = load ptr, ptr %8, align 8
  %vfn15 = getelementptr inbounds ptr, ptr %vtable14, i64 16
  %9 = load ptr, ptr %vfn15, align 8
  %call16 = call noundef i32 %9(ptr noundef nonnull align 8 dereferenceable(8) %8)
  %call17 = call noundef ptr @_ZN19OpenColorIO_v2_4dev21InterpolationToStringENS_13InterpolationE(i32 noundef %call16)
  %call18 = call noundef nonnull align 8 dereferenceable(8) ptr @_ZStlsISt11char_traitsIcEERSt13basic_ostreamIcT_ES5_PKc(ptr noundef nonnull align 8 dereferenceable(8) %call13, ptr noundef %call17)
  %call19 = call noundef nonnull align 8 dereferenceable(8) ptr @_ZStlsISt11char_traitsIcEERSt13basic_ostreamIcT_ES5_PKc(ptr noundef nonnull align 8 dereferenceable(8) %call18, ptr noundef @.str.5)
  %10 = load ptr, ptr %t.addr, align 8
  %vtable20 = load ptr, ptr %10, align 8
  %vfn21 = getelementptr inbounds ptr, ptr %vtable20, i64 12
  %11 = load ptr, ptr %vfn21, align 8
  %call22 = call noundef i64 %11(ptr noundef nonnull align 8 dereferenceable(8) %10)
  store i64 %call22, ptr %l, align 8
  %12 = load ptr, ptr %os.addr, align 8
  %call23 = call noundef nonnull align 8 dereferenceable(8) ptr @_ZStlsISt11char_traitsIcEERSt13basic_ostreamIcT_ES5_PKc(ptr noundef nonnull align 8 dereferenceable(8) %12, ptr noundef @.str.8)
  %13 = load i64, ptr %l, align 8
  %call24 = call noundef nonnull align 8 dereferenceable(8) ptr @_ZNSolsEm(ptr noundef nonnull align 8 dereferenceable(8) %call23, i64 noundef %13)
  %call25 = call noundef nonnull align 8 dereferenceable(8) ptr @_ZStlsISt11char_traitsIcEERSt13basic_ostreamIcT_ES5_PKc(ptr noundef nonnull align 8 dereferenceable(8) %call24, ptr noundef @.str.5)
  %14 = load i64, ptr %l, align 8
  %cmp = icmp ugt i64 %14, 0
  br i1 %cmp, label %if.then, label %if.end

if.then:                                          ; preds = %entry
  %call26 = call noundef float @_ZNSt14numeric_limitsIfE3maxEv() #3
  store float %call26, ptr %rMin, align 4
  %call27 = call noundef float @_ZNSt14numeric_limitsIfE3maxEv() #3
  store float %call27, ptr %gMin, align 4
  %call28 = call noundef float @_ZNSt14numeric_limitsIfE3maxEv() #3
  store float %call28, ptr %bMin, align 4
  %15 = load float, ptr %rMin, align 4
  %fneg = fneg float %15
  store float %fneg, ptr %rMax, align 4
  %16 = load float, ptr %gMin, align 4
  %fneg29 = fneg float %16
  store float %fneg29, ptr %gMax, align 4
  %17 = load float, ptr %bMin, align 4
  %fneg30 = fneg float %17
  store float %fneg30, ptr %bMax, align 4
  store i64 0, ptr %r, align 8
  br label %for.cond

for.cond:                                         ; preds = %for.inc49, %if.then
  %18 = load i64, ptr %r, align 8
  %19 = load i64, ptr %l, align 8
  %cmp31 = icmp ult i64 %18, %19
  br i1 %cmp31, label %for.body, label %for.end51

for.body:                                         ; preds = %for.cond
  store i64 0, ptr %g, align 8
  br label %for.cond32

for.cond32:                                       ; preds = %for.inc46, %for.body
  %20 = load i64, ptr %g, align 8
  %21 = load i64, ptr %l, align 8
  %cmp33 = icmp ult i64 %20, %21
  br i1 %cmp33, label %for.body34, label %for.end48

for.body34:                                       ; preds = %for.cond32
  store i64 0, ptr %b, align 8
  br label %for.cond35

for.cond35:                                       ; preds = %for.inc, %for.body34
  %22 = load i64, ptr %b, align 8
  %23 = load i64, ptr %l, align 8
  %cmp36 = icmp ult i64 %22, %23
  br i1 %cmp36, label %for.body37, label %for.end

for.body37:                                       ; preds = %for.cond35
  store float 0.000000e+00, ptr %rv, align 4
  store float 0.000000e+00, ptr %gv, align 4
  store float 0.000000e+00, ptr %bv, align 4
  %24 = load ptr, ptr %t.addr, align 8
  %25 = load i64, ptr %r, align 8
  %26 = load i64, ptr %g, align 8
  %27 = load i64, ptr %b, align 8
  %vtable38 = load ptr, ptr %24, align 8
  %vfn39 = getelementptr inbounds ptr, ptr %vtable38, i64 14
  %28 = load ptr, ptr %vfn39, align 8
  call void %28(ptr noundef nonnull align 8 dereferenceable(8) %24, i64 noundef %25, i64 noundef %26, i64 noundef %27, ptr noundef nonnull align 4 dereferenceable(4) %rv, ptr noundef nonnull align 4 dereferenceable(4) %gv, ptr noundef nonnull align 4 dereferenceable(4) %bv)
  %call40 = call noundef nonnull align 4 dereferenceable(4) ptr @_ZSt3minIfERKT_S2_S2_(ptr noundef nonnull align 4 dereferenceable(4) %rMin, ptr noundef nonnull align 4 dereferenceable(4) %rv)
  %29 = load float, ptr %call40, align 4
  store float %29, ptr %rMin, align 4
  %call41 = call noundef nonnull align 4 dereferenceable(4) ptr @_ZSt3minIfERKT_S2_S2_(ptr noundef nonnull align 4 dereferenceable(4) %gMin, ptr noundef nonnull align 4 dereferenceable(4) %gv)
  %30 = load float, ptr %call41, align 4
  store float %30, ptr %gMin, align 4
  %call42 = call noundef nonnull align 4 dereferenceable(4) ptr @_ZSt3minIfERKT_S2_S2_(ptr noundef nonnull align 4 dereferenceable(4) %bMin, ptr noundef nonnull align 4 dereferenceable(4) %bv)
  %31 = load float, ptr %call42, align 4
  store float %31, ptr %bMin, align 4
  %call43 = call noundef nonnull align 4 dereferenceable(4) ptr @_ZSt3maxIfERKT_S2_S2_(ptr noundef nonnull align 4 dereferenceable(4) %rMin, ptr noundef nonnull align 4 dereferenceable(4) %rv)
  %32 = load float, ptr %call43, align 4
  store float %32, ptr %rMax, align 4
  %call44 = call noundef nonnull align 4 dereferenceable(4) ptr @_ZSt3maxIfERKT_S2_S2_(ptr noundef nonnull align 4 dereferenceable(4) %gMin, ptr noundef nonnull align 4 dereferenceable(4) %gv)
  %33 = load float, ptr %call44, align 4
  store float %33, ptr %gMax, align 4
  %call45 = call noundef nonnull align 4 dereferenceable(4) ptr @_ZSt3maxIfERKT_S2_S2_(ptr noundef nonnull align 4 dereferenceable(4) %bMin, ptr noundef nonnull align 4 dereferenceable(4) %bv)
  %34 = load float, ptr %call45, align 4
  store float %34, ptr %bMax, align 4
  br label %for.inc

for.inc:                                          ; preds = %for.body37
  %35 = load i64, ptr %b, align 8
  %inc = add i64 %35, 1
  store i64 %inc, ptr %b, align 8
  br label %for.cond35, !llvm.loop !4

for.end:                                          ; preds = %for.cond35
  br label %for.inc46

for.inc46:                                        ; preds = %for.end
  %36 = load i64, ptr %g, align 8
  %inc47 = add i64 %36, 1
  store i64 %inc47, ptr %g, align 8
  br label %for.cond32, !llvm.loop !6

for.end48:                                        ; preds = %for.cond32
  br label %for.inc49

for.inc49:                                        ; preds = %for.end48
  %37 = load i64, ptr %r, align 8
  %inc50 = add i64 %37, 1
  store i64 %inc50, ptr %r, align 8
  br label %for.cond, !llvm.loop !7

for.end51:                                        ; preds = %for.cond
  %38 = load ptr, ptr %os.addr, align 8
  %call52 = call noundef nonnull align 8 dereferenceable(8) ptr @_ZStlsISt11char_traitsIcEERSt13basic_ostreamIcT_ES5_PKc(ptr noundef nonnull align 8 dereferenceable(8) %38, ptr noundef @.str.9)
  %39 = load ptr, ptr %os.addr, align 8
  %40 = load float, ptr %rMin, align 4
  %call53 = call noundef nonnull align 8 dereferenceable(8) ptr @_ZNSolsEf(ptr noundef nonnull align 8 dereferenceable(8) %39, float noundef %40)
  %call54 = call noundef nonnull align 8 dereferenceable(8) ptr @_ZStlsISt11char_traitsIcEERSt13basic_ostreamIcT_ES5_PKc(ptr noundef nonnull align 8 dereferenceable(8) %call53, ptr noundef @.str.10)
  %41 = load float, ptr %gMin, align 4
  %call55 = call noundef nonnull align 8 dereferenceable(8) ptr @_ZNSolsEf(ptr noundef nonnull align 8 dereferenceable(8) %call54, float noundef %41)
  %call56 = call noundef nonnull align 8 dereferenceable(8) ptr @_ZStlsISt11char_traitsIcEERSt13basic_ostreamIcT_ES5_PKc(ptr noundef nonnull align 8 dereferenceable(8) %call55, ptr noundef @.str.10)
  %42 = load float, ptr %bMin, align 4
  %call57 = call noundef nonnull align 8 dereferenceable(8) ptr @_ZNSolsEf(ptr noundef nonnull align 8 dereferenceable(8) %call56, float noundef %42)
  %call58 = call noundef nonnull align 8 dereferenceable(8) ptr @_ZStlsISt11char_traitsIcEERSt13basic_ostreamIcT_ES5_PKc(ptr noundef nonnull align 8 dereferenceable(8) %call57, ptr noundef @.str.11)
  %43 = load ptr, ptr %os.addr, align 8
  %call59 = call noundef nonnull align 8 dereferenceable(8) ptr @_ZStlsISt11char_traitsIcEERSt13basic_ostreamIcT_ES5_PKc(ptr noundef nonnull align 8 dereferenceable(8) %43, ptr noundef @.str.12)
  %44 = load ptr, ptr %os.addr, align 8
  %45 = load float, ptr %rMax, align 4
  %call60 = call noundef nonnull align 8 dereferenceable(8) ptr @_ZNSolsEf(ptr noundef nonnull align 8 dereferenceable(8) %44, float noundef %45)
  %call61 = call noundef nonnull align 8 dereferenceable(8) ptr @_ZStlsISt11char_traitsIcEERSt13basic_ostreamIcT_ES5_PKc(ptr noundef nonnull align 8 dereferenceable(8) %call60, ptr noundef @.str.10)
  %46 = load float, ptr %gMax, align 4
  %call62 = call noundef nonnull align 8 dereferenceable(8) ptr @_ZNSolsEf(ptr noundef nonnull align 8 dereferenceable(8) %call61, float noundef %46)
  %call63 = call noundef nonnull align 8 dereferenceable(8) ptr @_ZStlsISt11char_traitsIcEERSt13basic_ostreamIcT_ES5_PKc(ptr noundef nonnull align 8 dereferenceable(8) %call62, ptr noundef @.str.10)
  %47 = load float, ptr %bMax, align 4
  %call64 = call noundef nonnull align 8 dereferenceable(8) ptr @_ZNSolsEf(ptr noundef nonnull align 8 dereferenceable(8) %call63, float noundef %47)
  %call65 = call noundef nonnull align 8 dereferenceable(8) ptr @_ZStlsISt11char_traitsIcEERSt13basic_ostreamIcT_ES5_PKc(ptr noundef nonnull align 8 dereferenceable(8) %call64, ptr noundef @.str.13)
  br label %if.end

if.end:                                           ; preds = %for.end51, %entry
  %48 = load ptr, ptr %os.addr, align 8
  %call66 = call noundef nonnull align 8 dereferenceable(8) ptr @_ZStlsISt11char_traitsIcEERSt13basic_ostreamIcT_ES5_PKc(ptr noundef nonnull align 8 dereferenceable(8) %48, ptr noundef @.str.14)
  %49 = load ptr, ptr %os.addr, align 8
  ret ptr %49
}