; Function Attrs: mustprogress uwtable
define noundef nonnull align 8 dereferenceable(8) ptr @_ZN19OpenColorIO_v2_4devlsERSoRKNS_14Lut3DTransformE(ptr noundef nonnull returned align 8 dereferenceable(8) %os, ptr noundef nonnull align 8 dereferenceable(8) %t) local_unnamed_addr #3 {
entry:
  %rv = alloca float, align 4
  %gv = alloca float, align 4
  %bv = alloca float, align 4
  %call = tail call noundef nonnull align 8 dereferenceable(8) ptr @_ZStlsISt11char_traitsIcEERSt13basic_ostreamIcT_ES5_PKc(ptr noundef nonnull align 8 dereferenceable(8) %os, ptr noundef nonnull @.str.3)
  %call1 = tail call noundef nonnull align 8 dereferenceable(8) ptr @_ZStlsISt11char_traitsIcEERSt13basic_ostreamIcT_ES5_PKc(ptr noundef nonnull align 8 dereferenceable(8) %os, ptr noundef nonnull @.str.4)
  %vtable = load ptr, ptr %t, align 8
  %vfn = getelementptr inbounds i8, ptr %vtable, i64 8
  %0 = load ptr, ptr %vfn, align 8
  %call2 = tail call noundef i32 %0(ptr noundef nonnull align 8 dereferenceable(8) %t) #18
  %call3 = tail call noundef ptr @_ZN19OpenColorIO_v2_4dev26TransformDirectionToStringENS_18TransformDirectionE(i32 noundef %call2)
  %call4 = tail call noundef nonnull align 8 dereferenceable(8) ptr @_ZStlsISt11char_traitsIcEERSt13basic_ostreamIcT_ES5_PKc(ptr noundef nonnull align 8 dereferenceable(8) %call1, ptr noundef %call3)
  %call5 = tail call noundef nonnull align 8 dereferenceable(8) ptr @_ZStlsISt11char_traitsIcEERSt13basic_ostreamIcT_ES5_PKc(ptr noundef nonnull align 8 dereferenceable(8) %call4, ptr noundef nonnull @.str.5)
  %call6 = tail call noundef nonnull align 8 dereferenceable(8) ptr @_ZStlsISt11char_traitsIcEERSt13basic_ostreamIcT_ES5_PKc(ptr noundef nonnull align 8 dereferenceable(8) %os, ptr noundef nonnull @.str.6)
  %vtable7 = load ptr, ptr %t, align 8
  %vfn8 = getelementptr inbounds i8, ptr %vtable7, i64 56
  %1 = load ptr, ptr %vfn8, align 8
  %call9 = tail call noundef i32 %1(ptr noundef nonnull align 8 dereferenceable(8) %t) #18
  %call10 = tail call noundef ptr @_ZN19OpenColorIO_v2_4dev16BitDepthToStringENS_8BitDepthE(i32 noundef %call9)
  %call11 = tail call noundef nonnull align 8 dereferenceable(8) ptr @_ZStlsISt11char_traitsIcEERSt13basic_ostreamIcT_ES5_PKc(ptr noundef nonnull align 8 dereferenceable(8) %call6, ptr noundef %call10)
  %call12 = tail call noundef nonnull align 8 dereferenceable(8) ptr @_ZStlsISt11char_traitsIcEERSt13basic_ostreamIcT_ES5_PKc(ptr noundef nonnull align 8 dereferenceable(8) %call11, ptr noundef nonnull @.str.5)
  %call13 = tail call noundef nonnull align 8 dereferenceable(8) ptr @_ZStlsISt11char_traitsIcEERSt13basic_ostreamIcT_ES5_PKc(ptr noundef nonnull align 8 dereferenceable(8) %os, ptr noundef nonnull @.str.7)
  %vtable14 = load ptr, ptr %t, align 8
  %vfn15 = getelementptr inbounds i8, ptr %vtable14, i64 128
  %2 = load ptr, ptr %vfn15, align 8
  %call16 = tail call noundef i32 %2(ptr noundef nonnull align 8 dereferenceable(8) %t)
  %call17 = tail call noundef ptr @_ZN19OpenColorIO_v2_4dev21InterpolationToStringENS_13InterpolationE(i32 noundef %call16)
  %call18 = tail call noundef nonnull align 8 dereferenceable(8) ptr @_ZStlsISt11char_traitsIcEERSt13basic_ostreamIcT_ES5_PKc(ptr noundef nonnull align 8 dereferenceable(8) %call13, ptr noundef %call17)
  %call19 = tail call noundef nonnull align 8 dereferenceable(8) ptr @_ZStlsISt11char_traitsIcEERSt13basic_ostreamIcT_ES5_PKc(ptr noundef nonnull align 8 dereferenceable(8) %call18, ptr noundef nonnull @.str.5)
  %vtable20 = load ptr, ptr %t, align 8
  %vfn21 = getelementptr inbounds i8, ptr %vtable20, i64 96
  %3 = load ptr, ptr %vfn21, align 8
  %call22 = tail call noundef i64 %3(ptr noundef nonnull align 8 dereferenceable(8) %t)
  %call23 = tail call noundef nonnull align 8 dereferenceable(8) ptr @_ZStlsISt11char_traitsIcEERSt13basic_ostreamIcT_ES5_PKc(ptr noundef nonnull align 8 dereferenceable(8) %os, ptr noundef nonnull @.str.8)
  %call24 = tail call noundef nonnull align 8 dereferenceable(8) ptr @_ZNSolsEm(ptr noundef nonnull align 8 dereferenceable(8) %call23, i64 noundef %call22)
  %call25 = tail call noundef nonnull align 8 dereferenceable(8) ptr @_ZStlsISt11char_traitsIcEERSt13basic_ostreamIcT_ES5_PKc(ptr noundef nonnull align 8 dereferenceable(8) %call24, ptr noundef nonnull @.str.5)
  %cmp.not = icmp eq i64 %call22, 0
  br i1 %cmp.not, label %if.end, label %for.cond32.preheader

for.cond32.preheader:                             ; preds = %entry, %for.inc49
  %r.075 = phi i64 [ %inc50, %for.inc49 ], [ 0, %entry ]
  %bMin.074 = phi float [ %.sroa.speculated39, %for.inc49 ], [ 0x47EFFFFFE0000000, %entry ]
  %gMin.073 = phi float [ %.sroa.speculated47, %for.inc49 ], [ 0x47EFFFFFE0000000, %entry ]
  %rMin.072 = phi float [ %.sroa.speculated55, %for.inc49 ], [ 0x47EFFFFFE0000000, %entry ]
  br label %for.cond35.preheader

for.cond35.preheader:                             ; preds = %for.cond32.preheader, %for.inc46
  %g.071 = phi i64 [ 0, %for.cond32.preheader ], [ %inc47, %for.inc46 ]
  %bMin.170 = phi float [ %bMin.074, %for.cond32.preheader ], [ %.sroa.speculated39, %for.inc46 ]
  %gMin.169 = phi float [ %gMin.073, %for.cond32.preheader ], [ %.sroa.speculated47, %for.inc46 ]
  %rMin.168 = phi float [ %rMin.072, %for.cond32.preheader ], [ %.sroa.speculated55, %for.inc46 ]
  br label %for.body37

for.body37:                                       ; preds = %for.cond35.preheader, %for.body37
  %b.059 = phi i64 [ 0, %for.cond35.preheader ], [ %inc, %for.body37 ]
  %bMin.258 = phi float [ %bMin.170, %for.cond35.preheader ], [ %.sroa.speculated39, %for.body37 ]
  %gMin.257 = phi float [ %gMin.169, %for.cond35.preheader ], [ %.sroa.speculated47, %for.body37 ]
  %rMin.256 = phi float [ %rMin.168, %for.cond35.preheader ], [ %.sroa.speculated55, %for.body37 ]
  store float 0.000000e+00, ptr %rv, align 4
  store float 0.000000e+00, ptr %gv, align 4
  store float 0.000000e+00, ptr %bv, align 4
  %vtable38 = load ptr, ptr %t, align 8
  %vfn39 = getelementptr inbounds i8, ptr %vtable38, i64 112
  %4 = load ptr, ptr %vfn39, align 8
  call void %4(ptr noundef nonnull align 8 dereferenceable(8) %t, i64 noundef %r.075, i64 noundef %g.071, i64 noundef %b.059, ptr noundef nonnull align 4 dereferenceable(4) %rv, ptr noundef nonnull align 4 dereferenceable(4) %gv, ptr noundef nonnull align 4 dereferenceable(4) %bv)
  %5 = load float, ptr %rv, align 4
  %cmp.i = fcmp olt float %5, %rMin.256
  %.sroa.speculated55 = select i1 %cmp.i, float %5, float %rMin.256
  %6 = load float, ptr %gv, align 4
  %cmp.i25 = fcmp olt float %6, %gMin.257
  %.sroa.speculated47 = select i1 %cmp.i25, float %6, float %gMin.257
  %7 = load float, ptr %bv, align 4
  %cmp.i27 = fcmp olt float %7, %bMin.258
  %.sroa.speculated39 = select i1 %cmp.i27, float %7, float %bMin.258
  %inc = add nuw i64 %b.059, 1
  %exitcond.not = icmp eq i64 %inc, %call22
  br i1 %exitcond.not, label %for.inc46, label %for.body37, !llvm.loop !5

for.inc46:                                        ; preds = %for.body37
  %inc47 = add nuw i64 %g.071, 1
  %exitcond78.not = icmp eq i64 %inc47, %call22
  br i1 %exitcond78.not, label %for.inc49, label %for.cond35.preheader, !llvm.loop !7

for.inc49:                                        ; preds = %for.inc46
  %inc50 = add nuw i64 %r.075, 1
  %exitcond79.not = icmp eq i64 %inc50, %call22
  br i1 %exitcond79.not, label %for.end51, label %for.cond32.preheader, !llvm.loop !8

for.end51:                                        ; preds = %for.inc49
  %cmp.i29.le.le.le = fcmp olt float %.sroa.speculated55, %5
  %.sroa.speculated52.le.le.le = select i1 %cmp.i29.le.le.le, float %5, float %.sroa.speculated55
  %cmp.i31.le.le.le = fcmp olt float %.sroa.speculated47, %6
  %.sroa.speculated44.le.le.le = select i1 %cmp.i31.le.le.le, float %6, float %.sroa.speculated47
  %cmp.i33.le.le.le = fcmp olt float %.sroa.speculated39, %7
  %.sroa.speculated.le.le.le = select i1 %cmp.i33.le.le.le, float %7, float %.sroa.speculated39
  %call52 = call noundef nonnull align 8 dereferenceable(8) ptr @_ZStlsISt11char_traitsIcEERSt13basic_ostreamIcT_ES5_PKc(ptr noundef nonnull align 8 dereferenceable(8) %os, ptr noundef nonnull @.str.9)
  %call53 = call noundef nonnull align 8 dereferenceable(8) ptr @_ZNSolsEf(ptr noundef nonnull align 8 dereferenceable(8) %os, float noundef %.sroa.speculated55)
  %call54 = call noundef nonnull align 8 dereferenceable(8) ptr @_ZStlsISt11char_traitsIcEERSt13basic_ostreamIcT_ES5_PKc(ptr noundef nonnull align 8 dereferenceable(8) %call53, ptr noundef nonnull @.str.10)
  %call55 = call noundef nonnull align 8 dereferenceable(8) ptr @_ZNSolsEf(ptr noundef nonnull align 8 dereferenceable(8) %call54, float noundef %.sroa.speculated47)
  %call56 = call noundef nonnull align 8 dereferenceable(8) ptr @_ZStlsISt11char_traitsIcEERSt13basic_ostreamIcT_ES5_PKc(ptr noundef nonnull align 8 dereferenceable(8) %call55, ptr noundef nonnull @.str.10)
  %call57 = call noundef nonnull align 8 dereferenceable(8) ptr @_ZNSolsEf(ptr noundef nonnull align 8 dereferenceable(8) %call56, float noundef %.sroa.speculated39)
  %call58 = call noundef nonnull align 8 dereferenceable(8) ptr @_ZStlsISt11char_traitsIcEERSt13basic_ostreamIcT_ES5_PKc(ptr noundef nonnull align 8 dereferenceable(8) %call57, ptr noundef nonnull @.str.11)
  %call59 = call noundef nonnull align 8 dereferenceable(8) ptr @_ZStlsISt11char_traitsIcEERSt13basic_ostreamIcT_ES5_PKc(ptr noundef nonnull align 8 dereferenceable(8) %os, ptr noundef nonnull @.str.12)
  %call60 = call noundef nonnull align 8 dereferenceable(8) ptr @_ZNSolsEf(ptr noundef nonnull align 8 dereferenceable(8) %os, float noundef %.sroa.speculated52.le.le.le)
  %call61 = call noundef nonnull align 8 dereferenceable(8) ptr @_ZStlsISt11char_traitsIcEERSt13basic_ostreamIcT_ES5_PKc(ptr noundef nonnull align 8 dereferenceable(8) %call60, ptr noundef nonnull @.str.10)
  %call62 = call noundef nonnull align 8 dereferenceable(8) ptr @_ZNSolsEf(ptr noundef nonnull align 8 dereferenceable(8) %call61, float noundef %.sroa.speculated44.le.le.le)
  %call63 = call noundef nonnull align 8 dereferenceable(8) ptr @_ZStlsISt11char_traitsIcEERSt13basic_ostreamIcT_ES5_PKc(ptr noundef nonnull align 8 dereferenceable(8) %call62, ptr noundef nonnull @.str.10)
  %call64 = call noundef nonnull align 8 dereferenceable(8) ptr @_ZNSolsEf(ptr noundef nonnull align 8 dereferenceable(8) %call63, float noundef %.sroa.speculated.le.le.le)
  %call65 = call noundef nonnull align 8 dereferenceable(8) ptr @_ZStlsISt11char_traitsIcEERSt13basic_ostreamIcT_ES5_PKc(ptr noundef nonnull align 8 dereferenceable(8) %call64, ptr noundef nonnull @.str.13)
  br label %if.end

if.end:                                           ; preds = %for.end51, %entry
  %call66 = call noundef nonnull align 8 dereferenceable(8) ptr @_ZStlsISt11char_traitsIcEERSt13basic_ostreamIcT_ES5_PKc(ptr noundef nonnull align 8 dereferenceable(8) %os, ptr noundef nonnull @.str.14)
  ret ptr %os
}